; Function Attrs: mustprogress ssp uwtable
define hidden void @_ZN6open3d13visualization33pybind_visualization_declarationsERN8pybind117module_E(ptr noundef nonnull align 8 dereferenceable(8) %0) local_unnamed_addr #5 personality ptr @__gxx_personality_v0 {
  %2 = alloca %"class.pybind11::module_", align 8
  call void @llvm.lifetime.start.p0(i64 8, ptr nonnull %2) #28
  call void @_ZN8pybind117module_13def_submoduleEPKcS2_(ptr dead_on_unwind nonnull writable sret(%"class.pybind11::module_") align 8 %2, ptr noundef nonnull align 8 dereferenceable(8) %0, ptr noundef nonnull @.str, ptr noundef null)
  invoke void @_ZN6open3d13visualization32pybind_renderoption_declarationsERN8pybind117module_E(ptr noundef nonnull align 8 dereferenceable(8) %2)
          to label %3 unwind label %19

3:                                                ; preds = %1
  invoke void @_ZN6open3d13visualization31pybind_viewcontrol_declarationsERN8pybind117module_E(ptr noundef nonnull align 8 dereferenceable(8) %2)
          to label %4 unwind label %19

4:                                                ; preds = %3
  invoke void @_ZN6open3d13visualization30pybind_visualizer_declarationsERN8pybind117module_E(ptr noundef nonnull align 8 dereferenceable(8) %2)
          to label %5 unwind label %19

5:                                                ; preds = %4
  invoke void @_ZN6open3d13visualization41pybind_visualization_utility_declarationsERN8pybind117module_E(ptr noundef nonnull align 8 dereferenceable(8) %2)
          to label %6 unwind label %19

6:                                                ; preds = %5
  invoke void @_ZN6open3d13visualization9rendering28pybind_material_declarationsERN8pybind117module_E(ptr noundef nonnull align 8 dereferenceable(8) %2)
          to label %7 unwind label %19

7:                                                ; preds = %6
  %8 = load ptr, ptr %2, align 8, !tbaa !112
  %.not.i.i.i = icmp eq ptr %8, null
  br i1 %.not.i.i.i, label %_ZN8pybind116objectD2Ev.exit, label %9

9:                                                ; preds = %7
  %10 = load i64, ptr %8, align 8, !tbaa !111
  %11 = and i64 %10, 2147483648
  %.not2.i.i.i = icmp eq i64 %11, 0
  br i1 %.not2.i.i.i, label %12, label %_ZN8pybind116objectD2Ev.exit

12:                                               ; preds = %9
  %13 = add nsw i64 %10, -1
  store i64 %13, ptr %8, align 8, !tbaa !111
  %14 = icmp eq i64 %13, 0
  br i1 %14, label %15, label %_ZN8pybind116objectD2Ev.exit

15:                                               ; preds = %12
  invoke void @_Py_Dealloc(ptr noundef nonnull %8)
          to label %_ZN8pybind116objectD2Ev.exit unwind label %16

16:                                               ; preds = %15
  %17 = landingpad { ptr, i32 }
          catch ptr null
  %18 = extractvalue { ptr, i32 } %17, 0
  call void @__clang_call_terminate(ptr %18) #29
  unreachable

_ZN8pybind116objectD2Ev.exit:                     ; preds = %7, %9, %12, %15
  call void @llvm.lifetime.end.p0(i64 8, ptr nonnull %2) #28
  ret void

19:                                               ; preds = %6, %5, %4, %3, %1
  %20 = landingpad { ptr, i32 }
          cleanup
  call void @_ZN8pybind116objectD2Ev(ptr noundef nonnull align 8 dereferenceable(8) %2) #28
  call void @llvm.lifetime.end.p0(i64 8, ptr nonnull %2) #28
  resume { ptr, i32 } %20
}